target datalayout = "e-m:e-p270:32:32-p271:32:32-p272:64:64-i64:64-i128:128-f80:128-n8:16:32:64-S128"
target triple = "x86_64-pc-linux-gnu"

%struct._cmstransform_struct = type { i32, i32, ptr, ptr, ptr, ptr, ptr, %struct._cmsCACHE, ptr, ptr, ptr, ptr, i32, i32, %struct.cmsCIEXYZ, %struct.cmsCIEXYZ, ptr, i32, double, i32, ptr, ptr, ptr, ptr, ptr, i32, i32 }
%struct._cmsCACHE = type { [16 x i16], [16 x i16] }
%struct.cmsCIEXYZ = type { double, double, double }

; Function Attrs: nounwind uwtable
define internal i32 @_cmsQuickFloor(double noundef %0) #0 {
  %2 = alloca double, align 8
  store double %0, ptr %2, align 8
  %3 = load double, ptr %2, align 8
  %4 = call double @llvm.floor.f64(double %3)
  %5 = fptosi double %4 to i32
  ret i32 %5
}

; Function Attrs: nounwind uwtable
define internal zeroext i16 @_cmsQuickFloorWord(double noundef %0) #0 {
  %2 = alloca double, align 8
  store double %0, ptr %2, align 8
  %3 = load double, ptr %2, align 8
  %4 = fsub double %3, 3.276700e+04
  %5 = call i32 @_cmsQuickFloor(double noundef %4)
  %6 = trunc i32 %5 to i16
  %7 = zext i16 %6 to i32
  %8 = add i32 %7, 32767
  %9 = trunc i32 %8 to i16
  ret i16 %9
}

; Function Attrs: nounwind uwtable
define internal zeroext i16 @_cmsQuickSaturateWord(double noundef %0) #0 {
  %2 = alloca i16, align 2
  %3 = alloca double, align 8
  store double %0, ptr %3, align 8
  %4 = load double, ptr %3, align 8
  %5 = fadd double %4, 5.000000e-01
  store double %5, ptr %3, align 8
  %6 = load double, ptr %3, align 8
  %7 = fcmp ole double %6, 0.000000e+00
  br i1 %7, label %8, label %9

8:                                                ; preds = %1
  store i16 0, ptr %2, align 2
  br label %16

9:                                                ; preds = %1
  %10 = load double, ptr %3, align 8
  %11 = fcmp oge double %10, 6.553500e+04
  br i1 %11, label %12, label %13

12:                                               ; preds = %9
  store i16 -1, ptr %2, align 2
  br label %16

13:                                               ; preds = %9
  %14 = load double, ptr %3, align 8
  %15 = call zeroext i16 @_cmsQuickFloorWord(double noundef %14)
  store i16 %15, ptr %2, align 2
  br label %16

16:                                               ; preds = %13, %12, %8
  %17 = load i16, ptr %2, align 2
  ret i16 %17
}

; Function Attrs: nounwind uwtable
define internal i32 @PixelSize(i32 noundef %0) #0 {
  %2 = alloca i32, align 4
  %3 = alloca i32, align 4
  %4 = alloca i32, align 4
  store i32 %0, ptr %3, align 4
  %5 = load i32, ptr %3, align 4
  %6 = and i32 %5, 7
  store i32 %6, ptr %4, align 4
  %7 = load i32, ptr %4, align 4
  %8 = icmp eq i32 %7, 0
  br i1 %8, label %9, label %10

9:                                                ; preds = %1
  store i32 8, ptr %2, align 4
  br label %12

10:                                               ; preds = %1
  %11 = load i32, ptr %4, align 4
  store i32 %11, ptr %2, align 4
  br label %12

12:                                               ; preds = %10, %9
  %13 = load i32, ptr %2, align 4
  ret i32 %13
}

; Function Attrs: nounwind uwtable
define internal i32 @IsInkSpace(i32 noundef %0) #0 {
  %2 = alloca i32, align 4
  %3 = alloca i32, align 4
  store i32 %0, ptr %3, align 4
  %4 = load i32, ptr %3, align 4
  %5 = lshr i32 %4, 16
  %6 = and i32 %5, 31
  switch i32 %6, label %8 [
    i32 5, label %7
    i32 6, label %7
    i32 19, label %7
    i32 20, label %7
    i32 21, label %7
    i32 22, label %7
    i32 23, label %7
    i32 24, label %7
    i32 25, label %7
    i32 26, label %7
    i32 27, label %7
    i32 28, label %7
    i32 29, label %7
  ]

7:                                                ; preds = %1, %1, %1, %1, %1, %1, %1, %1, %1, %1, %1, %1, %1
  store i32 1, ptr %2, align 4
  br label %9

8:                                                ; preds = %1
  store i32 0, ptr %2, align 4
  br label %9

9:                                                ; preds = %8, %7
  %10 = load i32, ptr %2, align 4
  ret i32 %10
}

; Function Attrs: nounwind uwtable
define internal ptr @UnrollFloatTo16(ptr noundef %0, ptr noundef %1, ptr noundef %2, i32 noundef %3) #0 {
  %5 = alloca ptr, align 8
  %6 = alloca ptr, align 8
  %7 = alloca ptr, align 8
  %8 = alloca ptr, align 8
  %9 = alloca i32, align 4
  %10 = alloca i32, align 4
  %11 = alloca i32, align 4
  %12 = alloca i32, align 4
  %13 = alloca i32, align 4
  %14 = alloca i32, align 4
  %15 = alloca i32, align 4
  %16 = alloca i32, align 4
  %17 = alloca float, align 4
  %18 = alloca i16, align 2
  %19 = alloca i32, align 4
  %20 = alloca i32, align 4
  %21 = alloca double, align 8
  %22 = alloca i32, align 4
  %23 = alloca i16, align 2
  store ptr %0, ptr %6, align 8
  store ptr %1, ptr %7, align 8
  store ptr %2, ptr %8, align 8
  store i32 %3, ptr %9, align 4
  %24 = load ptr, ptr %6, align 8
  %25 = getelementptr inbounds %struct._cmstransform_struct, ptr %24, i32 0, i32 0
  %26 = load i32, ptr %25, align 8
  %27 = lshr i32 %26, 3
  %28 = and i32 %27, 15
  store i32 %28, ptr %10, align 4
  %29 = load ptr, ptr %6, align 8
  %30 = getelementptr inbounds %struct._cmstransform_struct, ptr %29, i32 0, i32 0
  %31 = load i32, ptr %30, align 8
  %32 = lshr i32 %31, 10
  %33 = and i32 %32, 1
  store i32 %33, ptr %11, align 4
  %34 = load ptr, ptr %6, align 8
  %35 = getelementptr inbounds %struct._cmstransform_struct, ptr %34, i32 0, i32 0
  %36 = load i32, ptr %35, align 8
  %37 = lshr i32 %36, 13
  %38 = and i32 %37, 1
  store i32 %38, ptr %12, align 4
  %39 = load ptr, ptr %6, align 8
  %40 = getelementptr inbounds %struct._cmstransform_struct, ptr %39, i32 0, i32 0
  %41 = load i32, ptr %40, align 8
  %42 = lshr i32 %41, 14
  %43 = and i32 %42, 1
  store i32 %43, ptr %13, align 4
  %44 = load ptr, ptr %6, align 8
  %45 = getelementptr inbounds %struct._cmstransform_struct, ptr %44, i32 0, i32 0
  %46 = load i32, ptr %45, align 8
  %47 = lshr i32 %46, 7
  %48 = and i32 %47, 7
  store i32 %48, ptr %14, align 4
  %49 = load i32, ptr %11, align 4
  %50 = load i32, ptr %13, align 4
  %51 = xor i32 %49, %50
  store i32 %51, ptr %15, align 4
  %52 = load ptr, ptr %6, align 8
  %53 = getelementptr inbounds %struct._cmstransform_struct, ptr %52, i32 0, i32 0
  %54 = load i32, ptr %53, align 8
  %55 = lshr i32 %54, 12
  %56 = and i32 %55, 1
  store i32 %56, ptr %16, align 4
  store i32 0, ptr %20, align 4
  %57 = load ptr, ptr %6, align 8
  %58 = getelementptr inbounds %struct._cmstransform_struct, ptr %57, i32 0, i32 0
  %59 = load i32, ptr %58, align 8
  %60 = call i32 @IsInkSpace(i32 noundef %59)
  %61 = icmp ne i32 %60, 0
  %62 = select i1 %61, double 6.553500e+02, double 6.553500e+04
  store double %62, ptr %21, align 8
  %63 = load ptr, ptr %6, align 8
  %64 = getelementptr inbounds %struct._cmstransform_struct, ptr %63, i32 0, i32 0
  %65 = load i32, ptr %64, align 8
  %66 = call i32 @PixelSize(i32 noundef %65)
  %67 = load i32, ptr %9, align 4
  %68 = udiv i32 %67, %66
  store i32 %68, ptr %9, align 4
  %69 = load i32, ptr %15, align 4
  %70 = icmp ne i32 %69, 0
  br i1 %70, label %71, label %73

71:                                               ; preds = %4
  %72 = load i32, ptr %14, align 4
  store i32 %72, ptr %20, align 4
  br label %73

73:                                               ; preds = %71, %4
  store i32 0, ptr %19, align 4
  br label %74

74:                                               ; preds = %129, %73
  %75 = load i32, ptr %19, align 4
  %76 = load i32, ptr %10, align 4
  %77 = icmp ult i32 %75, %76
  br i1 %77, label %78, label %132

78:                                               ; preds = %74
  %79 = load i32, ptr %11, align 4
  %80 = icmp ne i32 %79, 0
  br i1 %80, label %81, label %86

81:                                               ; preds = %78
  %82 = load i32, ptr %10, align 4
  %83 = load i32, ptr %19, align 4
  %84 = sub i32 %82, %83
  %85 = sub i32 %84, 1
  br label %88

86:                                               ; preds = %78
  %87 = load i32, ptr %19, align 4
  br label %88

88:                                               ; preds = %86, %81
  %89 = phi i32 [ %85, %81 ], [ %87, %86 ]
  store i32 %89, ptr %22, align 4
  %90 = load i32, ptr %16, align 4
  %91 = icmp ne i32 %90, 0
  br i1 %91, label %92, label %102

92:                                               ; preds = %88
  %93 = load ptr, ptr %8, align 8
  %94 = load i32, ptr %19, align 4
  %95 = load i32, ptr %20, align 4
  %96 = add i32 %94, %95
  %97 = load i32, ptr %9, align 4
  %98 = mul i32 %96, %97
  %99 = zext i32 %98 to i64
  %100 = getelementptr inbounds float, ptr %93, i64 %99
  %101 = load float, ptr %100, align 4
  store float %101, ptr %17, align 4
  br label %110

102:                                              ; preds = %88
  %103 = load ptr, ptr %8, align 8
  %104 = load i32, ptr %19, align 4
  %105 = load i32, ptr %20, align 4
  %106 = add i32 %104, %105
  %107 = zext i32 %106 to i64
  %108 = getelementptr inbounds float, ptr %103, i64 %107
  %109 = load float, ptr %108, align 4
  store float %109, ptr %17, align 4
  br label %110

110:                                              ; preds = %102, %92
  %111 = load float, ptr %17, align 4
  %112 = fpext float %111 to double
  %113 = load double, ptr %21, align 8
  %114 = fmul double %112, %113
  %115 = call zeroext i16 @_cmsQuickSaturateWord(double noundef %114)
  store i16 %115, ptr %18, align 2
  %116 = load i32, ptr %12, align 4
  %117 = icmp ne i32 %116, 0
  br i1 %117, label %118, label %123

118:                                              ; preds = %110
  %119 = load i16, ptr %18, align 2
  %120 = zext i16 %119 to i32
  %121 = sub nsw i32 65535, %120
  %122 = trunc i32 %121 to i16
  store i16 %122, ptr %18, align 2
  br label %123

123:                                              ; preds = %118, %110
  %124 = load i16, ptr %18, align 2
  %125 = load ptr, ptr %7, align 8
  %126 = load i32, ptr %22, align 4
  %127 = zext i32 %126 to i64
  %128 = getelementptr inbounds i16, ptr %125, i64 %127
  store i16 %124, ptr %128, align 2
  br label %129

129:                                              ; preds = %123
  %130 = load i32, ptr %19, align 4
  %131 = add i32 %130, 1
  store i32 %131, ptr %19, align 4
  br label %74, !llvm.loop !14

132:                                              ; preds = %74
  %133 = load i32, ptr %14, align 4
  %134 = icmp eq i32 %133, 0
  br i1 %134, label %135, label %156

135:                                              ; preds = %132
  %136 = load i32, ptr %13, align 4
  %137 = icmp ne i32 %136, 0
  br i1 %137, label %138, label %156

138:                                              ; preds = %135
  %139 = load ptr, ptr %7, align 8
  %140 = getelementptr inbounds i16, ptr %139, i64 0
  %141 = load i16, ptr %140, align 2
  store i16 %141, ptr %23, align 2
  %142 = load ptr, ptr %7, align 8
  %143 = getelementptr inbounds i16, ptr %142, i64 0
  %144 = load ptr, ptr %7, align 8
  %145 = getelementptr inbounds i16, ptr %144, i64 1
  %146 = load i32, ptr %10, align 4
  %147 = sub i32 %146, 1
  %148 = zext i32 %147 to i64
  %149 = mul i64 %148, 2
  call void @llvm.memmove.p0.p0.i64(ptr align 2 %143, ptr align 2 %145, i64 %149, i1 false)
  %150 = load i16, ptr %23, align 2
  %151 = load ptr, ptr %7, align 8
  %152 = load i32, ptr %10, align 4
  %153 = sub i32 %152, 1
  %154 = zext i32 %153 to i64
  %155 = getelementptr inbounds i16, ptr %151, i64 %154
  store i16 %150, ptr %155, align 2
  br label %156

156:                                              ; preds = %138, %135, %132
  %157 = load ptr, ptr %6, align 8
  %158 = getelementptr inbounds %struct._cmstransform_struct, ptr %157, i32 0, i32 0
  %159 = load i32, ptr %158, align 8
  %160 = lshr i32 %159, 12
  %161 = and i32 %160, 1
  %162 = icmp ne i32 %161, 0
  br i1 %162, label %163, label %166

163:                                              ; preds = %156
  %164 = load ptr, ptr %8, align 8
  %165 = getelementptr inbounds i8, ptr %164, i64 4
  store ptr %165, ptr %5, align 8
  br label %174

166:                                              ; preds = %156
  %167 = load ptr, ptr %8, align 8
  %168 = load i32, ptr %10, align 4
  %169 = load i32, ptr %14, align 4
  %170 = add i32 %168, %169
  %171 = zext i32 %170 to i64
  %172 = mul i64 %171, 4
  %173 = getelementptr inbounds i8, ptr %167, i64 %172
  store ptr %173, ptr %5, align 8
  br label %174

174:                                              ; preds = %166, %163
  %175 = load ptr, ptr %5, align 8
  ret ptr %175
}