; Function Attrs: nofree norecurse nosync nounwind memory(argmem: readwrite) uwtable
define internal ptr @UnrollFloatTo16(ptr nocapture noundef readonly %0, ptr nocapture noundef %1, ptr noundef readonly %2, i32 noundef %3) #4 {
  %5 = load i32, ptr %0, align 8
  %.fr = freeze i32 %5
  %6 = lshr i32 %.fr, 3
  %7 = and i32 %6, 15
  %8 = lshr i32 %.fr, 10
  %9 = and i32 %8, 1
  %10 = lshr i32 %.fr, 14
  %11 = and i32 %10, 1
  %12 = lshr i32 %.fr, 7
  %13 = and i32 %12, 7
  %14 = lshr i32 %.fr, 16
  %15 = and i32 %14, 31
  %switch.tableidx = add nsw i32 %15, -5
  %16 = icmp ult i32 %switch.tableidx, 25
  br i1 %16, label %switch.lookup, label %IsInkSpace.exit

switch.lookup:                                    ; preds = %4
  %17 = zext nneg i32 %switch.tableidx to i64
  %switch.gep = getelementptr inbounds [25 x double], ptr @switch.table.PackFloatFrom16, i64 0, i64 %17
  %switch.load = load double, ptr %switch.gep, align 8
  br label %IsInkSpace.exit

IsInkSpace.exit:                                  ; preds = %4, %switch.lookup
  %18 = phi double [ %switch.load, %switch.lookup ], [ 6.553500e+04, %4 ]
  %.not55 = icmp eq i32 %9, %11
  %spec.select = select i1 %.not55, i32 0, i32 %13
  %.not = icmp eq i32 %7, 0
  br i1 %.not, label %._crit_edge, label %.lr.ph

.lr.ph:                                           ; preds = %IsInkSpace.exit
  %19 = and i32 %.fr, 7
  %20 = icmp eq i32 %19, 0
  %..i = select i1 %20, i32 8, i32 %19
  %21 = udiv i32 %3, %..i
  %.not57 = icmp eq i32 %9, 0
  %22 = and i32 %.fr, 4096
  %.not58 = icmp eq i32 %22, 0
  %23 = select i1 %.not58, i32 1, i32 %21
  %24 = shl i32 %.fr, 18
  %sext = ashr i32 %24, 31
  %25 = trunc nsw i32 %sext to i16
  %wide.trip.count70 = zext nneg i32 %7 to i64
  br i1 %.not57, label %.lr.ph.split.us, label %.lr.ph.split

.lr.ph.split.us:                                  ; preds = %.lr.ph, %_cmsQuickSaturateWord.exit.us
  %indvars.iv67 = phi i64 [ %indvars.iv.next68, %_cmsQuickSaturateWord.exit.us ], [ 0, %.lr.ph ]
  %26 = trunc i64 %indvars.iv67 to i32
  %27 = add i32 %spec.select, %26
  %.pn.in.us = mul i32 %27, %23
  %.pn.us = zext i32 %.pn.in.us to i64
  %.050.in.us = getelementptr inbounds float, ptr %2, i64 %.pn.us
  %.050.us = load float, ptr %.050.in.us, align 4
  %28 = fpext float %.050.us to double
  %29 = fmul double %18, %28
  %30 = fadd double %29, 5.000000e-01
  %31 = fcmp ugt double %30, 0.000000e+00
  br i1 %31, label %32, label %_cmsQuickSaturateWord.exit.us

32:                                               ; preds = %.lr.ph.split.us
  %33 = fcmp ult double %30, 6.553500e+04
  br i1 %33, label %34, label %_cmsQuickSaturateWord.exit.us

34:                                               ; preds = %32
  %35 = fadd double %30, -3.276700e+04
  %36 = tail call double @llvm.floor.f64(double %35)
  %37 = fptosi double %36 to i32
  %38 = trunc i32 %37 to i16
  %39 = add i16 %38, 32767
  br label %_cmsQuickSaturateWord.exit.us

_cmsQuickSaturateWord.exit.us:                    ; preds = %.lr.ph.split.us, %34, %32
  %.0.i60.us = phi i16 [ %39, %34 ], [ 0, %.lr.ph.split.us ], [ -1, %32 ]
  %.053.us = xor i16 %.0.i60.us, %25
  %40 = getelementptr inbounds i16, ptr %1, i64 %indvars.iv67
  store i16 %.053.us, ptr %40, align 2
  %indvars.iv.next68 = add nuw nsw i64 %indvars.iv67, 1
  %exitcond71.not = icmp eq i64 %indvars.iv.next68, %wide.trip.count70
  br i1 %exitcond71.not, label %._crit_edge, label %.lr.ph.split.us, !llvm.loop !14

.lr.ph.split:                                     ; preds = %.lr.ph, %_cmsQuickSaturateWord.exit
  %indvars.iv = phi i64 [ %indvars.iv.next, %_cmsQuickSaturateWord.exit ], [ 0, %.lr.ph ]
  %41 = trunc nuw nsw i64 %indvars.iv to i32
  %42 = xor i32 %41, -1
  %43 = add nsw i32 %7, %42
  %44 = trunc i64 %indvars.iv to i32
  %45 = add i32 %spec.select, %44
  %.pn.in = mul i32 %45, %23
  %.pn = zext i32 %.pn.in to i64
  %.050.in = getelementptr inbounds float, ptr %2, i64 %.pn
  %.050 = load float, ptr %.050.in, align 4
  %46 = fpext float %.050 to double
  %47 = fmul double %18, %46
  %48 = fadd double %47, 5.000000e-01
  %49 = fcmp ugt double %48, 0.000000e+00
  br i1 %49, label %50, label %_cmsQuickSaturateWord.exit

50:                                               ; preds = %.lr.ph.split
  %51 = fcmp ult double %48, 6.553500e+04
  br i1 %51, label %52, label %_cmsQuickSaturateWord.exit

52:                                               ; preds = %50
  %53 = fadd double %48, -3.276700e+04
  %54 = tail call double @llvm.floor.f64(double %53)
  %55 = fptosi double %54 to i32
  %56 = trunc i32 %55 to i16
  %57 = add i16 %56, 32767
  br label %_cmsQuickSaturateWord.exit

_cmsQuickSaturateWord.exit:                       ; preds = %.lr.ph.split, %50, %52
  %.0.i60 = phi i16 [ %57, %52 ], [ 0, %.lr.ph.split ], [ -1, %50 ]
  %.053 = xor i16 %.0.i60, %25
  %58 = zext i32 %43 to i64
  %59 = getelementptr inbounds i16, ptr %1, i64 %58
  store i16 %.053, ptr %59, align 2
  %indvars.iv.next = add nuw nsw i64 %indvars.iv, 1
  %exitcond.not = icmp eq i64 %indvars.iv.next, %wide.trip.count70
  br i1 %exitcond.not, label %._crit_edge, label %.lr.ph.split, !llvm.loop !14

._crit_edge:                                      ; preds = %_cmsQuickSaturateWord.exit, %_cmsQuickSaturateWord.exit.us, %IsInkSpace.exit
  %60 = icmp eq i32 %13, 0
  %61 = icmp ne i32 %11, 0
  %or.cond = and i1 %60, %61
  br i1 %or.cond, label %62, label %69

62:                                               ; preds = %._crit_edge
  %63 = load i16, ptr %1, align 2
  %64 = getelementptr inbounds i8, ptr %1, i64 2
  %65 = add nsw i32 %7, -1
  %66 = zext i32 %65 to i64
  %67 = shl nuw nsw i64 %66, 1
  tail call void @llvm.memmove.p0.p0.i64(ptr nonnull align 2 %1, ptr nonnull align 2 %64, i64 %67, i1 false)
  %68 = getelementptr inbounds i16, ptr %1, i64 %66
  store i16 %63, ptr %68, align 2
  br label %69

69:                                               ; preds = %62, %._crit_edge
  %70 = load i32, ptr %0, align 8
  %71 = and i32 %70, 4096
  %.not56 = icmp eq i32 %71, 0
  %72 = add nuw nsw i32 %7, %13
  %73 = shl nuw nsw i32 %72, 2
  %narrow = select i1 %.not56, i32 %73, i32 4
  %.0.v = zext nneg i32 %narrow to i64
  %.0 = getelementptr inbounds i8, ptr %2, i64 %.0.v
  ret ptr %.0
}